; Function Attrs: nounwind uwtable
define internal noundef i32 @cvBandPrecSolve(double %0, ptr readnone captures(none) %1, ptr readnone captures(none) %2, ptr noundef %3, ptr noundef %4, double %5, double %6, i32 %7, ptr noundef readonly captures(none) %8, ptr readnone captures(none) %9) #0 {
  tail call void @N_VScale(double noundef 1.000000e+00, ptr noundef %3, ptr noundef %4) #5
  %11 = tail call ptr @N_VGetArrayPointer(ptr noundef %4) #5
  %12 = getelementptr inbounds nuw i8, ptr %8, i64 32
  %13 = load ptr, ptr %12, align 8, !tbaa !32
  %14 = getelementptr inbounds nuw i8, ptr %8, i64 40
  %15 = load ptr, ptr %14, align 8, !tbaa !33
  tail call void @BandGBTRS(ptr noundef %13, ptr noundef %15, ptr noundef %11) #5
  ret i32 0
}